target datalayout = "e-m:e-p270:32:32-p271:32:32-p272:64:64-i64:64-i128:128-f80:128-n8:16:32:64-S128"
target triple = "x86_64-pc-linux-gnu"

%struct.client_io_t = type { i32, i32, i8, i32, i32, i32, ptr, i8, %union.pthread_cond_t, %union.pthread_mutex_t, i32, ptr, ptr, ptr, %union.pthread_mutex_t, ptr, i32, ptr, ptr, ptr, ptr, ptr, ptr, i32, i32, ptr }
%union.pthread_cond_t = type { %struct.__pthread_cond_s }
%struct.__pthread_cond_s = type { %union.__atomic_wide_counter, %union.__atomic_wide_counter, [2 x i32], [2 x i32], i32, i32, [2 x i32] }
%union.__atomic_wide_counter = type { i64 }
%union.pthread_mutex_t = type { %struct.__pthread_mutex_s }
%struct.__pthread_mutex_s = type { i32, i32, i32, i32, i32, i16, i16, %struct.__pthread_internal_list }
%struct.__pthread_internal_list = type { ptr, ptr }
%union.pthread_attr_t = type { i64, [48 x i8] }

@.str.4 = private unnamed_addr constant [29 x i8] c"%s: pthread_mutex_lock(): %m\00", align 1
@__func__.client_io_handler_start = private unnamed_addr constant [24 x i8] c"client_io_handler_start\00", align 1
@.str.5 = private unnamed_addr constant [22 x i8] c"pthread_attr_init: %m\00", align 1
@.str.6 = private unnamed_addr constant [26 x i8] c"pthread_attr_setscope: %m\00", align 1
@.str.7 = private unnamed_addr constant [30 x i8] c"pthread_attr_setstacksize: %m\00", align 1
@.str.8 = private unnamed_addr constant [35 x i8] c"%s: pthread_attr_setdetachstate %m\00", align 1
@.str.9 = private unnamed_addr constant [28 x i8] c"%s: pthread_create error %m\00", align 1
@.str.10 = private unnamed_addr constant [55 x i8] c"pthread_attr_destroy failed, possible memory leak!: %m\00", align 1
@.str.11 = private unnamed_addr constant [31 x i8] c"%s: pthread_mutex_unlock(): %m\00", align 1
@.str.12 = private unnamed_addr constant [25 x i8] c"Started IO server thread\00", align 1

; Function Attrs: nounwind uwtable
define dso_local void @client_io_handler_start(ptr noundef %0) #0 {
  %2 = alloca ptr, align 8
  %3 = alloca i32, align 4
  %4 = alloca i64, align 8
  %5 = alloca %union.pthread_attr_t, align 8
  %6 = alloca i32, align 4
  %7 = alloca i32, align 4
  %8 = alloca i32, align 4
  %9 = alloca i32, align 4
  store ptr %0, ptr %2, align 8
  %10 = call ptr @xsignal(i32 noundef 21, ptr noundef inttoptr (i64 1 to ptr))
  br label %11

11:                                               ; preds = %1
  call void @llvm.lifetime.start.p0(i64 4, ptr %3) #9
  %12 = load ptr, ptr %2, align 8
  %13 = getelementptr inbounds nuw %struct.client_io_t, ptr %12, i32 0, i32 9
  %14 = call i32 @pthread_mutex_lock(ptr noundef %13) #9
  store i32 %14, ptr %3, align 4
  %15 = load i32, ptr %3, align 4
  %16 = icmp ne i32 %15, 0
  br i1 %16, label %17, label %20

17:                                               ; preds = %11
  %18 = load i32, ptr %3, align 4
  %19 = call ptr @__errno_location() #10
  store i32 %18, ptr %19, align 4
  call void (ptr, ...) @fatal_abort(ptr noundef @.str.4, ptr noundef @__func__.client_io_handler_start) #11
  unreachable

20:                                               ; preds = %11
  call void @llvm.lifetime.end.p0(i64 4, ptr %3) #9
  br label %21

21:                                               ; preds = %20
  br label %22

22:                                               ; preds = %21
  call void @llvm.lifetime.start.p0(i64 8, ptr %4) #9
  call void @llvm.lifetime.start.p0(i64 56, ptr %5) #9
  call void @llvm.lifetime.start.p0(i64 4, ptr %6) #9
  br label %23

23:                                               ; preds = %22
  call void @llvm.lifetime.start.p0(i64 4, ptr %7) #9
  %24 = call i32 @pthread_attr_init(ptr noundef %5) #9
  store i32 %24, ptr %7, align 4
  %25 = load i32, ptr %7, align 4
  %26 = icmp ne i32 %25, 0
  br i1 %26, label %27, label %30

27:                                               ; preds = %23
  %28 = load i32, ptr %7, align 4
  %29 = call ptr @__errno_location() #10
  store i32 %28, ptr %29, align 4
  call void (ptr, ...) @fatal(ptr noundef @.str.5) #11
  unreachable

30:                                               ; preds = %23
  %31 = call i32 @pthread_attr_setscope(ptr noundef %5, i32 noundef 0) #9
  store i32 %31, ptr %7, align 4
  %32 = load i32, ptr %7, align 4
  %33 = icmp ne i32 %32, 0
  br i1 %33, label %34, label %38

34:                                               ; preds = %30
  %35 = load i32, ptr %7, align 4
  %36 = call ptr @__errno_location() #10
  store i32 %35, ptr %36, align 4
  %37 = call i32 (ptr, ...) @error(ptr noundef @.str.6)
  br label %38

38:                                               ; preds = %34, %30
  %39 = call i32 @pthread_attr_setstacksize(ptr noundef %5, i64 noundef 1048576) #9
  store i32 %39, ptr %7, align 4
  %40 = load i32, ptr %7, align 4
  %41 = icmp ne i32 %40, 0
  br i1 %41, label %42, label %46

42:                                               ; preds = %38
  %43 = load i32, ptr %7, align 4
  %44 = call ptr @__errno_location() #10
  store i32 %43, ptr %44, align 4
  %45 = call i32 (ptr, ...) @error(ptr noundef @.str.7)
  br label %46

46:                                               ; preds = %42, %38
  call void @llvm.lifetime.end.p0(i64 4, ptr %7) #9
  br label %47

47:                                               ; preds = %46
  br label %48

48:                                               ; preds = %47
  %49 = call i32 @pthread_attr_setdetachstate(ptr noundef %5, i32 noundef 1) #9
  store i32 %49, ptr %6, align 4
  %50 = load i32, ptr %6, align 4
  %51 = icmp ne i32 %50, 0
  br i1 %51, label %52, label %55

52:                                               ; preds = %48
  %53 = load i32, ptr %6, align 4
  %54 = call ptr @__errno_location() #10
  store i32 %53, ptr %54, align 4
  call void (ptr, ...) @fatal(ptr noundef @.str.8, ptr noundef @__func__.client_io_handler_start) #11
  unreachable

55:                                               ; preds = %48
  %56 = load ptr, ptr %2, align 8
  %57 = call i32 @pthread_create(ptr noundef %4, ptr noundef %5, ptr noundef @_io_thr_internal, ptr noundef %56) #9
  store i32 %57, ptr %6, align 4
  %58 = load i32, ptr %6, align 4
  %59 = icmp ne i32 %58, 0
  br i1 %59, label %60, label %63

60:                                               ; preds = %55
  %61 = load i32, ptr %6, align 4
  %62 = call ptr @__errno_location() #10
  store i32 %61, ptr %62, align 4
  call void (ptr, ...) @fatal(ptr noundef @.str.9, ptr noundef @__func__.client_io_handler_start) #11
  unreachable

63:                                               ; preds = %55
  br label %64

64:                                               ; preds = %63
  call void @llvm.lifetime.start.p0(i64 4, ptr %8) #9
  %65 = call i32 @pthread_attr_destroy(ptr noundef %5) #9
  store i32 %65, ptr %8, align 4
  %66 = load i32, ptr %8, align 4
  %67 = icmp ne i32 %66, 0
  br i1 %67, label %68, label %72

68:                                               ; preds = %64
  %69 = load i32, ptr %8, align 4
  %70 = call ptr @__errno_location() #10
  store i32 %69, ptr %70, align 4
  %71 = call i32 (ptr, ...) @error(ptr noundef @.str.10)
  br label %72

72:                                               ; preds = %68, %64
  call void @llvm.lifetime.end.p0(i64 4, ptr %8) #9
  br label %73

73:                                               ; preds = %72
  br label %74

74:                                               ; preds = %73
  call void @llvm.lifetime.end.p0(i64 4, ptr %6) #9
  call void @llvm.lifetime.end.p0(i64 56, ptr %5) #9
  call void @llvm.lifetime.end.p0(i64 8, ptr %4) #9
  br label %75

75:                                               ; preds = %74
  %76 = load ptr, ptr %2, align 8
  %77 = getelementptr inbounds nuw %struct.client_io_t, ptr %76, i32 0, i32 7
  store i8 1, ptr %77, align 8
  br label %78

78:                                               ; preds = %75
  call void @llvm.lifetime.start.p0(i64 4, ptr %9) #9
  %79 = load ptr, ptr %2, align 8
  %80 = getelementptr inbounds nuw %struct.client_io_t, ptr %79, i32 0, i32 9
  %81 = call i32 @pthread_mutex_unlock(ptr noundef %80) #9
  store i32 %81, ptr %9, align 4
  %82 = load i32, ptr %9, align 4
  %83 = icmp ne i32 %82, 0
  br i1 %83, label %84, label %87

84:                                               ; preds = %78
  %85 = load i32, ptr %9, align 4
  %86 = call ptr @__errno_location() #10
  store i32 %85, ptr %86, align 4
  call void (ptr, ...) @fatal_abort(ptr noundef @.str.11, ptr noundef @__func__.client_io_handler_start) #11
  unreachable

87:                                               ; preds = %78
  call void @llvm.lifetime.end.p0(i64 4, ptr %9) #9
  br label %88

88:                                               ; preds = %87
  br label %89

89:                                               ; preds = %88
  br label %90

90:                                               ; preds = %89
  %91 = call i32 @get_log_level()
  %92 = icmp sge i32 %91, 5
  br i1 %92, label %93, label %94

93:                                               ; preds = %90
  call void (i32, ptr, ...) @log_var(i32 noundef 5, ptr noundef @.str.12)
  br label %94

94:                                               ; preds = %93, %90
  br label %95

95:                                               ; preds = %94
  br label %96

96:                                               ; preds = %95
  ret void
}