; Function Attrs: nounwind uwtable
define dso_local void @client_io_handler_start(ptr noundef %0) local_unnamed_addr #0 {
  %2 = alloca i64, align 8
  %3 = alloca %union.pthread_attr_t, align 8
  %4 = tail call ptr @xsignal(i32 noundef 21, ptr noundef nonnull inttoptr (i64 1 to ptr)) #10
  %5 = getelementptr inbounds nuw i8, ptr %0, i64 88
  %6 = tail call i32 @pthread_mutex_lock(ptr noundef nonnull %5) #10
  %.not = icmp eq i32 %6, 0
  br i1 %.not, label %9, label %7

7:                                                ; preds = %1
  %8 = tail call ptr @__errno_location() #11
  store i32 %6, ptr %8, align 4
  tail call void (ptr, ...) @fatal_abort(ptr noundef nonnull @.str.4, ptr noundef nonnull @__func__.client_io_handler_start) #12
  unreachable

9:                                                ; preds = %1
  call void @llvm.lifetime.start.p0(i64 8, ptr nonnull %2) #10
  call void @llvm.lifetime.start.p0(i64 56, ptr nonnull %3) #10
  %10 = call i32 @pthread_attr_init(ptr noundef nonnull %3) #10
  %.not26 = icmp eq i32 %10, 0
  br i1 %.not26, label %13, label %11

11:                                               ; preds = %9
  %12 = tail call ptr @__errno_location() #11
  store i32 %10, ptr %12, align 4
  call void (ptr, ...) @fatal(ptr noundef nonnull @.str.5) #12
  unreachable

13:                                               ; preds = %9
  %14 = call i32 @pthread_attr_setscope(ptr noundef nonnull %3, i32 noundef 0) #10
  %.not27 = icmp eq i32 %14, 0
  br i1 %.not27, label %18, label %15

15:                                               ; preds = %13
  %16 = tail call ptr @__errno_location() #11
  store i32 %14, ptr %16, align 4
  %17 = call i32 (ptr, ...) @error(ptr noundef nonnull @.str.6) #10
  br label %18

18:                                               ; preds = %15, %13
  %19 = call i32 @pthread_attr_setstacksize(ptr noundef nonnull %3, i64 noundef 1048576) #10
  %.not28 = icmp eq i32 %19, 0
  br i1 %.not28, label %23, label %20

20:                                               ; preds = %18
  %21 = tail call ptr @__errno_location() #11
  store i32 %19, ptr %21, align 4
  %22 = call i32 (ptr, ...) @error(ptr noundef nonnull @.str.7) #10
  br label %23

23:                                               ; preds = %20, %18
  %24 = call i32 @pthread_attr_setdetachstate(ptr noundef nonnull %3, i32 noundef 1) #10
  %.not29 = icmp eq i32 %24, 0
  br i1 %.not29, label %27, label %25

25:                                               ; preds = %23
  %26 = tail call ptr @__errno_location() #11
  store i32 %24, ptr %26, align 4
  call void (ptr, ...) @fatal(ptr noundef nonnull @.str.8, ptr noundef nonnull @__func__.client_io_handler_start) #12
  unreachable

27:                                               ; preds = %23
  %28 = call i32 @pthread_create(ptr noundef nonnull %2, ptr noundef nonnull %3, ptr noundef nonnull @_io_thr_internal, ptr noundef nonnull %0) #10
  %.not30 = icmp eq i32 %28, 0
  br i1 %.not30, label %31, label %29

29:                                               ; preds = %27
  %30 = tail call ptr @__errno_location() #11
  store i32 %28, ptr %30, align 4
  call void (ptr, ...) @fatal(ptr noundef nonnull @.str.9, ptr noundef nonnull @__func__.client_io_handler_start) #12
  unreachable

31:                                               ; preds = %27
  %32 = call i32 @pthread_attr_destroy(ptr noundef nonnull %3) #10
  %.not31 = icmp eq i32 %32, 0
  br i1 %.not31, label %36, label %33

33:                                               ; preds = %31
  %34 = tail call ptr @__errno_location() #11
  store i32 %32, ptr %34, align 4
  %35 = call i32 (ptr, ...) @error(ptr noundef nonnull @.str.10) #10
  br label %36

36:                                               ; preds = %33, %31
  call void @llvm.lifetime.end.p0(i64 56, ptr nonnull %3) #10
  call void @llvm.lifetime.end.p0(i64 8, ptr nonnull %2) #10
  %37 = getelementptr inbounds nuw i8, ptr %0, i64 32
  store i8 1, ptr %37, align 8
  %38 = call i32 @pthread_mutex_unlock(ptr noundef nonnull %5) #10
  %.not32 = icmp eq i32 %38, 0
  br i1 %.not32, label %41, label %39

39:                                               ; preds = %36
  %40 = tail call ptr @__errno_location() #11
  store i32 %38, ptr %40, align 4
  call void (ptr, ...) @fatal_abort(ptr noundef nonnull @.str.11, ptr noundef nonnull @__func__.client_io_handler_start) #12
  unreachable

41:                                               ; preds = %36
  %42 = call i32 @get_log_level() #10
  %43 = icmp sgt i32 %42, 4
  br i1 %43, label %44, label %45

44:                                               ; preds = %41
  call void (i32, ptr, ...) @log_var(i32 noundef 5, ptr noundef nonnull @.str.12) #10
  br label %45

45:                                               ; preds = %44, %41
  ret void
}